; Function Attrs: nounwind uwtable
define noundef ptr @Gia_ManIffSelect(ptr noundef %0) local_unnamed_addr #5 {
  %2 = load ptr, ptr %0, align 8, !tbaa !48
  %3 = getelementptr i8, ptr %2, i64 24
  %.val = load i32, ptr %3, align 8, !tbaa !3
  %4 = tail call noalias dereferenceable_or_null(16) ptr @malloc(i64 noundef 16) #14
  %5 = add i32 %.val, -1
  %or.cond.i = icmp ult i32 %5, 15
  %spec.store.select.i = select i1 %or.cond.i, i32 16, i32 %.val
  %6 = getelementptr inbounds nuw i8, ptr %4, i64 4
  store i32 %spec.store.select.i, ptr %4, align 8, !tbaa !36
  %.not.i = icmp eq i32 %spec.store.select.i, 0
  br i1 %.not.i, label %Vec_IntGrow.exit.i, label %.Vec_IntGrow.exit10_crit_edge.i

.Vec_IntGrow.exit10_crit_edge.i:                  ; preds = %1
  %7 = sext i32 %spec.store.select.i to i64
  %8 = shl nsw i64 %7, 2
  %9 = tail call noalias ptr @malloc(i64 noundef %8) #14
  %10 = getelementptr inbounds nuw i8, ptr %4, i64 8
  store ptr %9, ptr %10, align 8, !tbaa !37
  br label %Vec_IntPush.exit

Vec_IntGrow.exit.i:                               ; preds = %1
  %11 = getelementptr inbounds nuw i8, ptr %4, i64 8
  %12 = tail call noalias dereferenceable_or_null(64) ptr @malloc(i64 noundef 64) #14
  store ptr %12, ptr %11, align 8, !tbaa !37
  store i32 16, ptr %4, align 8, !tbaa !36
  br label %Vec_IntPush.exit

Vec_IntPush.exit:                                 ; preds = %.Vec_IntGrow.exit10_crit_edge.i, %Vec_IntGrow.exit.i
  %13 = phi ptr [ %9, %.Vec_IntGrow.exit10_crit_edge.i ], [ %12, %Vec_IntGrow.exit.i ]
  store i32 1, ptr %6, align 4, !tbaa !38
  store i32 0, ptr %13, align 4, !tbaa !41
  tail call void @Gia_ManIncrementTravId(ptr noundef nonnull %2) #15
  %14 = load ptr, ptr %0, align 8, !tbaa !48
  %15 = getelementptr i8, ptr %14, i64 176
  %.val25 = load i32, ptr %15, align 8, !tbaa !42
  %16 = getelementptr i8, ptr %14, i64 616
  %.val26 = load ptr, ptr %16, align 8, !tbaa !43
  store i32 %.val25, ptr %.val26, align 4, !tbaa !41
  %17 = getelementptr inbounds nuw i8, ptr %14, i64 64
  %18 = load ptr, ptr %17, align 8, !tbaa !67
  %19 = getelementptr i8, ptr %18, i64 4
  %.val2834 = load i32, ptr %19, align 4, !tbaa !38
  %20 = icmp sgt i32 %.val2834, 0
  br i1 %20, label %.lr.ph, label %.critedge

.lr.ph:                                           ; preds = %Vec_IntPush.exit
  %21 = getelementptr i8, ptr %14, i64 32
  %.val30 = load ptr, ptr %21, align 8, !tbaa !53
  %.not = icmp eq ptr %.val30, null
  br i1 %.not, label %.critedge, label %.lr.ph.split

.lr.ph.split:                                     ; preds = %.lr.ph
  %22 = getelementptr i8, ptr %18, i64 8
  %.val31.val = load ptr, ptr %22, align 8, !tbaa !37
  br label %23

23:                                               ; preds = %.lr.ph.split, %23
  %indvars.iv = phi i64 [ 0, %.lr.ph.split ], [ %indvars.iv.next, %23 ]
  %24 = getelementptr inbounds nuw i32, ptr %.val31.val, i64 %indvars.iv
  %25 = load i32, ptr %24, align 4, !tbaa !41
  %26 = zext i32 %25 to i64
  %sext.i = shl nuw i64 %26, 32
  %27 = ashr exact i64 %sext.i, 30
  %28 = getelementptr inbounds i8, ptr %.val26, i64 %27
  store i32 %.val25, ptr %28, align 4, !tbaa !41
  %indvars.iv.next = add nuw nsw i64 %indvars.iv, 1
  %.val28 = load i32, ptr %19, align 4, !tbaa !38
  %29 = sext i32 %.val28 to i64
  %30 = icmp slt i64 %indvars.iv.next, %29
  br i1 %30, label %23, label %.critedge, !llvm.loop !68

.critedge:                                        ; preds = %23, %.lr.ph, %Vec_IntPush.exit
  %31 = getelementptr inbounds nuw i8, ptr %14, i64 72
  %32 = load ptr, ptr %31, align 8, !tbaa !69
  %33 = getelementptr i8, ptr %32, i64 4
  %.val2937 = load i32, ptr %33, align 4, !tbaa !38
  %34 = icmp sgt i32 %.val2937, 0
  br i1 %34, label %.lr.ph39, label %.critedge2

.lr.ph39:                                         ; preds = %.critedge, %38
  %indvars.iv42 = phi i64 [ %indvars.iv.next43, %38 ], [ 0, %.critedge ]
  %35 = phi ptr [ %49, %38 ], [ %32, %.critedge ]
  %36 = phi ptr [ %47, %38 ], [ %14, %.critedge ]
  %37 = getelementptr i8, ptr %36, i64 32
  %.val32 = load ptr, ptr %37, align 8, !tbaa !53
  %.not24 = icmp eq ptr %.val32, null
  br i1 %.not24, label %.critedge2, label %38

38:                                               ; preds = %.lr.ph39
  %39 = getelementptr i8, ptr %35, i64 8
  %.val33.val = load ptr, ptr %39, align 8, !tbaa !37
  %40 = getelementptr inbounds nuw i32, ptr %.val33.val, i64 %indvars.iv42
  %41 = load i32, ptr %40, align 4, !tbaa !41
  %42 = sext i32 %41 to i64
  %43 = getelementptr inbounds %struct.Gia_Obj_t_, ptr %.val32, i64 %42
  %.val3.i = load i64, ptr %43, align 4
  %44 = trunc i64 %.val3.i to i32
  %45 = and i32 %44, 536870911
  %46 = sub nsw i32 %41, %45
  tail call void @Gia_ManIffSelect_rec(ptr noundef nonnull %0, i32 noundef %46, ptr noundef nonnull %4)
  %indvars.iv.next43 = add nuw nsw i64 %indvars.iv42, 1
  %47 = load ptr, ptr %0, align 8, !tbaa !48
  %48 = getelementptr inbounds nuw i8, ptr %47, i64 72
  %49 = load ptr, ptr %48, align 8, !tbaa !69
  %50 = getelementptr i8, ptr %49, i64 4
  %.val29 = load i32, ptr %50, align 4, !tbaa !38
  %51 = sext i32 %.val29 to i64
  %52 = icmp slt i64 %indvars.iv.next43, %51
  br i1 %52, label %.lr.ph39, label %.critedge2, !llvm.loop !70

.critedge2:                                       ; preds = %.lr.ph39, %38, %.critedge
  ret ptr %4
}